; ModuleID = '55/1184.cpp'
source_filename = "55/1184.cpp"
target datalayout = "e-m:e-p270:32:32-p271:32:32-p272:64:64-i64:64-f80:128-n8:16:32:64-S128"
target triple = "x86_64-pc-linux-gnu"

%"class.std::ios_base::Init" = type { i8 }
%"class.std::basic_istream" = type { i32 (...)**, i64, %"class.std::basic_ios" }
%"class.std::basic_ios" = type { %"class.std::ios_base", %"class.std::basic_ostream"*, i8, i8, %"class.std::basic_streambuf"*, %"class.std::ctype"*, %"class.std::num_put"*, %"class.std::num_get"* }
%"class.std::ios_base" = type { i32 (...)**, i64, i64, i32, i32, i32, %"struct.std::ios_base::_Callback_list"*, %"struct.std::ios_base::_Words", [8 x %"struct.std::ios_base::_Words"], i32, %"struct.std::ios_base::_Words"*, %"class.std::locale" }
%"struct.std::ios_base::_Callback_list" = type { %"struct.std::ios_base::_Callback_list"*, void (i32, %"class.std::ios_base"*, i32)*, i32, i32 }
%"struct.std::ios_base::_Words" = type { i8*, i64 }
%"class.std::locale" = type { %"class.std::locale::_Impl"* }
%"class.std::locale::_Impl" = type { i32, %"class.std::locale::facet"**, i64, %"class.std::locale::facet"**, i8** }
%"class.std::locale::facet" = type <{ i32 (...)**, i32, [4 x i8] }>
%"class.std::basic_ostream" = type { i32 (...)**, %"class.std::basic_ios" }
%"class.std::basic_streambuf" = type { i32 (...)**, i8*, i8*, i8*, i8*, i8*, i8*, %"class.std::locale" }
%"class.std::ctype" = type <{ %"class.std::locale::facet.base", [4 x i8], %struct.__locale_struct*, i8, [7 x i8], i32*, i32*, i16*, i8, [256 x i8], [256 x i8], i8, [6 x i8] }>
%"class.std::locale::facet.base" = type <{ i32 (...)**, i32 }>
%struct.__locale_struct = type { [13 x %struct.__locale_data*], i16*, i32*, i32*, [13 x i8*] }
%struct.__locale_data = type opaque
%"class.std::num_put" = type { %"class.std::locale::facet.base", [4 x i8] }
%"class.std::num_get" = type { %"class.std::locale::facet.base", [4 x i8] }

@_ZStL8__ioinit = internal global %"class.std::ios_base::Init" zeroinitializer, align 1
@__dso_handle = external hidden global i8
@_ZSt3cin = external dso_local global %"class.std::basic_istream", align 8
@_ZSt4cout = external dso_local global %"class.std::basic_ostream", align 8
@llvm.global_ctors = appending global [1 x { i32, void ()*, i8* }] [{ i32, void ()*, i8* } { i32 65535, void ()* @_GLOBAL__sub_I_1184.cpp, i8* null }]

; Function Attrs: noinline uwtable
define internal void @__cxx_global_var_init() #0 section ".text.startup" {
  call void @_ZNSt8ios_base4InitC1Ev(%"class.std::ios_base::Init"* @_ZStL8__ioinit)
  %1 = call i32 @__cxa_atexit(void (i8*)* bitcast (void (%"class.std::ios_base::Init"*)* @_ZNSt8ios_base4InitD1Ev to void (i8*)*), i8* getelementptr inbounds (%"class.std::ios_base::Init", %"class.std::ios_base::Init"* @_ZStL8__ioinit, i32 0, i32 0), i8* @__dso_handle) #3
  ret void
}

declare dso_local void @_ZNSt8ios_base4InitC1Ev(%"class.std::ios_base::Init"*) unnamed_addr #1

; Function Attrs: nounwind
declare dso_local void @_ZNSt8ios_base4InitD1Ev(%"class.std::ios_base::Init"*) unnamed_addr #2

; Function Attrs: nounwind
declare dso_local i32 @__cxa_atexit(void (i8*)*, i8*, i8*) #3

; Function Attrs: noinline norecurse uwtable
define dso_local i32 @main() #4 {
  %1 = alloca i32, align 4
  %2 = alloca i64, align 8
  %3 = alloca i64, align 8
  %4 = alloca i32, align 4
  %5 = alloca i32, align 4
  %6 = alloca i32, align 4
  %7 = alloca i32, align 4
  %8 = alloca [100 x i8], align 16
  %9 = alloca [100 x i8], align 16
  store i32 0, i32* %1, align 4
  store i64 0, i64* %2, align 8
  %10 = call dereferenceable(280) %"class.std::basic_istream"* @_ZNSirsERi(%"class.std::basic_istream"* @_ZSt3cin, i32* dereferenceable(4) %4)
  %11 = call i32 @getchar()
  store i32 0, i32* %6, align 4
  br label %12

12:                                               ; preds = %106, %0
  %13 = call i32 @getchar()
  %14 = trunc i32 %13 to i8
  %15 = load i32, i32* %6, align 4
  %16 = sext i32 %15 to i64
  %17 = getelementptr inbounds [100 x i8], [100 x i8]* %8, i64 0, i64 %16
  store i8 %14, i8* %17, align 1
  %18 = load i32, i32* %6, align 4
  %19 = sext i32 %18 to i64
  %20 = getelementptr inbounds [100 x i8], [100 x i8]* %8, i64 0, i64 %19
  %21 = load i8, i8* %20, align 1
  %22 = sext i8 %21 to i32
  %23 = icmp sge i32 %22, 97
  br i1 %23, label %24, label %42

24:                                               ; preds = %12
  %25 = load i32, i32* %6, align 4
  %26 = sext i32 %25 to i64
  %27 = getelementptr inbounds [100 x i8], [100 x i8]* %8, i64 0, i64 %26
  %28 = load i8, i8* %27, align 1
  %29 = sext i8 %28 to i32
  %30 = icmp sle i32 %29, 122
  br i1 %30, label %31, label %42

31:                                               ; preds = %24
  %32 = load i32, i32* %6, align 4
  %33 = sext i32 %32 to i64
  %34 = getelementptr inbounds [100 x i8], [100 x i8]* %8, i64 0, i64 %33
  %35 = load i8, i8* %34, align 1
  %36 = sext i8 %35 to i32
  %37 = sub nsw i32 %36, 87
  %38 = trunc i32 %37 to i8
  %39 = load i32, i32* %6, align 4
  %40 = sext i32 %39 to i64
  %41 = getelementptr inbounds [100 x i8], [100 x i8]* %8, i64 0, i64 %40
  store i8 %38, i8* %41, align 1
  br label %95

42:                                               ; preds = %24, %12
  %43 = load i32, i32* %6, align 4
  %44 = sext i32 %43 to i64
  %45 = getelementptr inbounds [100 x i8], [100 x i8]* %8, i64 0, i64 %44
  %46 = load i8, i8* %45, align 1
  %47 = sext i8 %46 to i32
  %48 = icmp sge i32 %47, 65
  br i1 %48, label %49, label %67

49:                                               ; preds = %42
  %50 = load i32, i32* %6, align 4
  %51 = sext i32 %50 to i64
  %52 = getelementptr inbounds [100 x i8], [100 x i8]* %8, i64 0, i64 %51
  %53 = load i8, i8* %52, align 1
  %54 = sext i8 %53 to i32
  %55 = icmp sle i32 %54, 90
  br i1 %55, label %56, label %67

56:                                               ; preds = %49
  %57 = load i32, i32* %6, align 4
  %58 = sext i32 %57 to i64
  %59 = getelementptr inbounds [100 x i8], [100 x i8]* %8, i64 0, i64 %58
  %60 = load i8, i8* %59, align 1
  %61 = sext i8 %60 to i32
  %62 = sub nsw i32 %61, 55
  %63 = trunc i32 %62 to i8
  %64 = load i32, i32* %6, align 4
  %65 = sext i32 %64 to i64
  %66 = getelementptr inbounds [100 x i8], [100 x i8]* %8, i64 0, i64 %65
  store i8 %63, i8* %66, align 1
  br label %94

67:                                               ; preds = %49, %42
  %68 = load i32, i32* %6, align 4
  %69 = sext i32 %68 to i64
  %70 = getelementptr inbounds [100 x i8], [100 x i8]* %8, i64 0, i64 %69
  %71 = load i8, i8* %70, align 1
  %72 = sext i8 %71 to i32
  %73 = icmp sge i32 %72, 42
  br i1 %73, label %74, label %92

74:                                               ; preds = %67
  %75 = load i32, i32* %6, align 4
  %76 = sext i32 %75 to i64
  %77 = getelementptr inbounds [100 x i8], [100 x i8]* %8, i64 0, i64 %76
  %78 = load i8, i8* %77, align 1
  %79 = sext i8 %78 to i32
  %80 = icmp sle i32 %79, 57
  br i1 %80, label %81, label %92

81:                                               ; preds = %74
  %82 = load i32, i32* %6, align 4
  %83 = sext i32 %82 to i64
  %84 = getelementptr inbounds [100 x i8], [100 x i8]* %8, i64 0, i64 %83
  %85 = load i8, i8* %84, align 1
  %86 = sext i8 %85 to i32
  %87 = sub nsw i32 %86, 48
  %88 = trunc i32 %87 to i8
  %89 = load i32, i32* %6, align 4
  %90 = sext i32 %89 to i64
  %91 = getelementptr inbounds [100 x i8], [100 x i8]* %8, i64 0, i64 %90
  store i8 %88, i8* %91, align 1
  br label %93

92:                                               ; preds = %74, %67
  br label %109

93:                                               ; preds = %81
  br label %94

94:                                               ; preds = %93, %56
  br label %95

95:                                               ; preds = %94, %31
  %96 = load i64, i64* %2, align 8
  %97 = load i32, i32* %4, align 4
  %98 = sext i32 %97 to i64
  %99 = mul nsw i64 %96, %98
  %100 = load i32, i32* %6, align 4
  %101 = sext i32 %100 to i64
  %102 = getelementptr inbounds [100 x i8], [100 x i8]* %8, i64 0, i64 %101
  %103 = load i8, i8* %102, align 1
  %104 = sext i8 %103 to i64
  %105 = add nsw i64 %99, %104
  store i64 %105, i64* %2, align 8
  br label %106

106:                                              ; preds = %95
  %107 = load i32, i32* %6, align 4
  %108 = add nsw i32 %107, 1
  store i32 %108, i32* %6, align 4
  br label %12

109:                                              ; preds = %92
  %110 = load i64, i64* %2, align 8
  store i64 %110, i64* %3, align 8
  %111 = call dereferenceable(280) %"class.std::basic_istream"* @_ZNSirsERi(%"class.std::basic_istream"* @_ZSt3cin, i32* dereferenceable(4) %5)
  store i32 0, i32* %7, align 4
  br label %112

112:                                              ; preds = %147, %109
  %113 = load i64, i64* %3, align 8
  %114 = load i32, i32* %5, align 4
  %115 = sext i32 %114 to i64
  %116 = srem i64 %113, %115
  %117 = icmp sge i64 %116, 10
  br i1 %117, label %118, label %128

118:                                              ; preds = %112
  %119 = load i64, i64* %3, align 8
  %120 = load i32, i32* %5, align 4
  %121 = sext i32 %120 to i64
  %122 = srem i64 %119, %121
  %123 = add nsw i64 %122, 55
  %124 = trunc i64 %123 to i8
  %125 = load i32, i32* %7, align 4
  %126 = sext i32 %125 to i64
  %127 = getelementptr inbounds [100 x i8], [100 x i8]* %9, i64 0, i64 %126
  store i8 %124, i8* %127, align 1
  br label %138

128:                                              ; preds = %112
  %129 = load i64, i64* %3, align 8
  %130 = load i32, i32* %5, align 4
  %131 = sext i32 %130 to i64
  %132 = srem i64 %129, %131
  %133 = add nsw i64 %132, 48
  %134 = trunc i64 %133 to i8
  %135 = load i32, i32* %7, align 4
  %136 = sext i32 %135 to i64
  %137 = getelementptr inbounds [100 x i8], [100 x i8]* %9, i64 0, i64 %136
  store i8 %134, i8* %137, align 1
  br label %138

138:                                              ; preds = %128, %118
  %139 = load i64, i64* %3, align 8
  %140 = load i32, i32* %5, align 4
  %141 = sext i32 %140 to i64
  %142 = sdiv i64 %139, %141
  store i64 %142, i64* %3, align 8
  %143 = load i64, i64* %3, align 8
  %144 = icmp eq i64 %143, 0
  br i1 %144, label %145, label %146

145:                                              ; preds = %138
  br label %150

146:                                              ; preds = %138
  br label %147

147:                                              ; preds = %146
  %148 = load i32, i32* %7, align 4
  %149 = add nsw i32 %148, 1
  store i32 %149, i32* %7, align 4
  br label %112

150:                                              ; preds = %145
  br label %151

151:                                              ; preds = %160, %150
  %152 = load i32, i32* %7, align 4
  %153 = icmp sge i32 %152, 0
  br i1 %153, label %154, label %163

154:                                              ; preds = %151
  %155 = load i32, i32* %7, align 4
  %156 = sext i32 %155 to i64
  %157 = getelementptr inbounds [100 x i8], [100 x i8]* %9, i64 0, i64 %156
  %158 = load i8, i8* %157, align 1
  %159 = call dereferenceable(272) %"class.std::basic_ostream"* @_ZStlsISt11char_traitsIcEERSt13basic_ostreamIcT_ES5_c(%"class.std::basic_ostream"* dereferenceable(272) @_ZSt4cout, i8 signext %158)
  br label %160

160:                                              ; preds = %154
  %161 = load i32, i32* %7, align 4
  %162 = add nsw i32 %161, -1
  store i32 %162, i32* %7, align 4
  br label %151

163:                                              ; preds = %151
  %164 = call dereferenceable(272) %"class.std::basic_ostream"* @_ZNSolsEPFRSoS_E(%"class.std::basic_ostream"* @_ZSt4cout, %"class.std::basic_ostream"* (%"class.std::basic_ostream"*)* @_ZSt4endlIcSt11char_traitsIcEERSt13basic_ostreamIT_T0_ES6_)
  ret i32 0
}

declare dso_local dereferenceable(280) %"class.std::basic_istream"* @_ZNSirsERi(%"class.std::basic_istream"*, i32* dereferenceable(4)) #1

declare dso_local i32 @getchar() #1

declare dso_local dereferenceable(272) %"class.std::basic_ostream"* @_ZStlsISt11char_traitsIcEERSt13basic_ostreamIcT_ES5_c(%"class.std::basic_ostream"* dereferenceable(272), i8 signext) #1

declare dso_local dereferenceable(272) %"class.std::basic_ostream"* @_ZNSolsEPFRSoS_E(%"class.std::basic_ostream"*, %"class.std::basic_ostream"* (%"class.std::basic_ostream"*)*) #1

declare dso_local dereferenceable(272) %"class.std::basic_ostream"* @_ZSt4endlIcSt11char_traitsIcEERSt13basic_ostreamIT_T0_ES6_(%"class.std::basic_ostream"* dereferenceable(272)) #1

; Function Attrs: noinline uwtable
define internal void @_GLOBAL__sub_I_1184.cpp() #0 section ".text.startup" {
  call void @__cxx_global_var_init()
  ret void
}


!llvm.module.flags = !{!0}
!llvm.ident = !{!1}

!0 = !{i32 1, !"wchar_size", i32 4}
!1 = !{!"clang version 10.0.0-4ubuntu1 "}
